; Function Attrs: mustprogress uwtable
define noundef zeroext i1 @_ZNK7rocksdb13ObjectLibrary12PatternEntry7MatchesERKNSt7__cxx1112basic_stringIcSt11char_traitsIcESaIcEEE(ptr noundef nonnull align 8 dereferenceable(112) %0, ptr noundef nonnull align 8 dereferenceable(32) %1) unnamed_addr #0 align 2 {
  %3 = getelementptr inbounds nuw i8, ptr %1, i64 8
  %4 = load i64, ptr %3, align 8, !tbaa !4
  %5 = getelementptr inbounds nuw i8, ptr %0, i64 8
  %6 = getelementptr inbounds nuw i8, ptr %0, i64 40
  %7 = load i64, ptr %6, align 8, !tbaa !38
  %8 = tail call noundef zeroext i1 @_ZNK7rocksdb13ObjectLibrary12PatternEntry13MatchesTargetERKNSt7__cxx1112basic_stringIcSt11char_traitsIcESaIcEEEmS9_m(ptr noundef nonnull align 8 dereferenceable(112) %0, ptr noundef nonnull align 8 dereferenceable(32) %5, i64 noundef %7, ptr noundef nonnull align 8 dereferenceable(32) %1, i64 noundef %4)
  br i1 %8, label %.critedge, label %9

9:                                                ; preds = %2
  %10 = getelementptr inbounds nuw i8, ptr %0, i64 48
  %11 = load ptr, ptr %10, align 8, !tbaa !39
  %12 = getelementptr inbounds nuw i8, ptr %0, i64 56
  %13 = load ptr, ptr %12, align 8, !tbaa !39
  %14 = icmp eq ptr %11, %13
  br i1 %14, label %.critedge, label %.preheader

.preheader:                                       ; preds = %9, %.preheader
  %.sroa.015.018 = phi ptr [ %18, %.preheader ], [ %11, %9 ]
  %15 = getelementptr inbounds nuw i8, ptr %.sroa.015.018, i64 8
  %16 = load i64, ptr %15, align 8, !tbaa !4
  %17 = tail call noundef zeroext i1 @_ZNK7rocksdb13ObjectLibrary12PatternEntry13MatchesTargetERKNSt7__cxx1112basic_stringIcSt11char_traitsIcESaIcEEEmS9_m(ptr noundef nonnull align 8 dereferenceable(112) %0, ptr noundef nonnull align 8 dereferenceable(32) %.sroa.015.018, i64 noundef %16, ptr noundef nonnull align 8 dereferenceable(32) %1, i64 noundef %4)
  %18 = getelementptr inbounds nuw i8, ptr %.sroa.015.018, i64 32
  %.not = icmp eq ptr %18, %13
  %or.cond = select i1 %17, i1 true, i1 %.not
  br i1 %or.cond, label %.critedge, label %.preheader

.critedge:                                        ; preds = %.preheader, %9, %2
  %.0 = phi i1 [ true, %2 ], [ false, %9 ], [ %17, %.preheader ]
  ret i1 %.0
}